; Function Attrs: mustprogress uwtable
define hidden void @_ZNK6Assimp7Blender9Structure7ConvertINS0_11MDeformVertEEEvRT_RKNS0_12FileDatabaseE(ptr noundef nonnull align 8 dereferenceable(120) %0, ptr noundef nonnull align 8 dereferenceable(44) %1, ptr noundef nonnull align 8 dereferenceable(232) %2) local_unnamed_addr #0 align 2 personality ptr @__gxx_personality_v0 {
  %4 = getelementptr inbounds nuw i8, ptr %1, i64 16
  %5 = tail call noundef zeroext i1 @_ZNK6Assimp7Blender9Structure12ReadFieldPtrILi1ENS0_6vectorENS0_13MDeformWeightEEEbRT0_IT1_EPKcRKNS0_12FileDatabaseEb(ptr noundef nonnull align 8 dereferenceable(120) %0, ptr noundef nonnull align 8 dereferenceable(24) %4, ptr noundef nonnull @.str.213, ptr noundef nonnull align 8 dereferenceable(232) %2, i1 noundef zeroext false)
  %6 = getelementptr inbounds nuw i8, ptr %1, i64 40
  tail call void @_ZNK6Assimp7Blender9Structure9ReadFieldILi0EiEEvRT0_PKcRKNS0_12FileDatabaseE(ptr noundef nonnull align 8 dereferenceable(120) %0, ptr noundef nonnull align 4 dereferenceable(4) %6, ptr noundef nonnull @.str.214, ptr noundef nonnull align 8 dereferenceable(232) %2)
  %7 = getelementptr inbounds nuw i8, ptr %2, i64 128
  %8 = load ptr, ptr %7, align 8
  %9 = getelementptr inbounds nuw i8, ptr %0, i64 104
  %10 = load i64, ptr %9, align 8
  %11 = getelementptr inbounds nuw i8, ptr %8, i64 24
  %12 = load ptr, ptr %11, align 8
  %13 = getelementptr inbounds i8, ptr %12, i64 %10
  store ptr %13, ptr %11, align 8
  %14 = getelementptr inbounds nuw i8, ptr %8, i64 40
  %15 = load ptr, ptr %14, align 8
  %16 = icmp ugt ptr %13, %15
  br i1 %16, label %17, label %_ZN6Assimp12StreamReaderILb1ELb1EE6IncPtrEl.exit

17:                                               ; preds = %3
  %18 = tail call ptr @__cxa_allocate_exception(i64 16) #23
  invoke void @_ZN17DeadlyImportErrorC2EPKc(ptr noundef nonnull align 8 dereferenceable(16) %18, ptr noundef nonnull @.str.307)
          to label %19 unwind label %20

19:                                               ; preds = %17
  tail call void @__cxa_throw(ptr nonnull %18, ptr nonnull @_ZTI17DeadlyImportError, ptr nonnull @_ZNSt13runtime_errorD2Ev) #24
  unreachable

20:                                               ; preds = %17
  %21 = landingpad { ptr, i32 }
          cleanup
  tail call void @__cxa_free_exception(ptr nonnull %18) #23
  resume { ptr, i32 } %21

_ZN6Assimp12StreamReaderILb1ELb1EE6IncPtrEl.exit: ; preds = %3
  ret void
}